; Function Attrs: mustprogress nounwind uwtable
define hidden void @_ZN4cvc58internal4prop18TheoryPreregistrarD0Ev(ptr noundef nonnull align 8 dereferenceable(56) %this) unnamed_addr #6 align 2 personality ptr @__gxx_personality_v0 {
entry:
  store ptr getelementptr inbounds ({ [4 x ptr] }, ptr @_ZTVN4cvc58internal4prop18TheoryPreregistrarE, i64 0, i32 0, i64 2), ptr %this, align 8
  %d_notify.i = getelementptr inbounds i8, ptr %this, i64 48
  %0 = load ptr, ptr %d_notify.i, align 8
  %cmp.not.i.i = icmp eq ptr %0, null
  br i1 %cmp.not.i.i, label %_ZNSt10unique_ptrIN4cvc58internal4prop24TheoryPreregistrarNotifyESt14default_deleteIS3_EED2Ev.exit.i, label %_ZNKSt14default_deleteIN4cvc58internal4prop24TheoryPreregistrarNotifyEEclEPS3_.exit.i.i

_ZNKSt14default_deleteIN4cvc58internal4prop24TheoryPreregistrarNotifyEEclEPS3_.exit.i.i: ; preds = %entry
  %vtable.i.i.i = load ptr, ptr %0, align 8
  %vfn.i.i.i = getelementptr inbounds i8, ptr %vtable.i.i.i, i64 16
  %1 = load ptr, ptr %vfn.i.i.i, align 8
  tail call void %1(ptr noundef nonnull align 8 dereferenceable(32) %0) #15
  br label %_ZNSt10unique_ptrIN4cvc58internal4prop24TheoryPreregistrarNotifyESt14default_deleteIS3_EED2Ev.exit.i

_ZNSt10unique_ptrIN4cvc58internal4prop24TheoryPreregistrarNotifyESt14default_deleteIS3_EED2Ev.exit.i: ; preds = %_ZNKSt14default_deleteIN4cvc58internal4prop24TheoryPreregistrarNotifyEEclEPS3_.exit.i.i, %entry
  store ptr null, ptr %d_notify.i, align 8
  %d_sat_literals.i = getelementptr inbounds i8, ptr %this, i64 24
  %2 = load ptr, ptr %d_sat_literals.i, align 8
  %_M_finish.i.i = getelementptr inbounds i8, ptr %this, i64 32
  %3 = load ptr, ptr %_M_finish.i.i, align 8
  %cmp.not3.i.i.i.i.i = icmp eq ptr %2, %3
  br i1 %cmp.not3.i.i.i.i.i, label %invoke.cont.i.i, label %for.body.i.i.i.i.i

for.body.i.i.i.i.i:                               ; preds = %_ZNSt10unique_ptrIN4cvc58internal4prop24TheoryPreregistrarNotifyESt14default_deleteIS3_EED2Ev.exit.i, %_ZSt8_DestroyISt4pairIN4cvc58internal12NodeTemplateILb1EEEjEEvPT_.exit.i.i.i.i.i
  %__first.addr.04.i.i.i.i.i = phi ptr [ %incdec.ptr.i.i.i.i.i, %_ZSt8_DestroyISt4pairIN4cvc58internal12NodeTemplateILb1EEEjEEvPT_.exit.i.i.i.i.i ], [ %2, %_ZNSt10unique_ptrIN4cvc58internal4prop24TheoryPreregistrarNotifyESt14default_deleteIS3_EED2Ev.exit.i ]
  %4 = load ptr, ptr %__first.addr.04.i.i.i.i.i, align 8
  %bf.load.i.i.i.i.i.i.i.i.i = load i64, ptr %4, align 8
  %5 = and i64 %bf.load.i.i.i.i.i.i.i.i.i, 1152920405095219200
  %cmp.not.i.i.i.i.i.i.i.i.i = icmp eq i64 %5, 1152920405095219200
  br i1 %cmp.not.i.i.i.i.i.i.i.i.i, label %_ZSt8_DestroyISt4pairIN4cvc58internal12NodeTemplateILb1EEEjEEvPT_.exit.i.i.i.i.i, label %if.then.i.i.i.i.i.i.i.i.i

if.then.i.i.i.i.i.i.i.i.i:                        ; preds = %for.body.i.i.i.i.i
  %bf.value.i.i.i.i.i.i.i.i.i = add i64 %bf.load.i.i.i.i.i.i.i.i.i, 1152920405095219200
  %bf.shl.i.i.i.i.i.i.i.i.i = and i64 %bf.value.i.i.i.i.i.i.i.i.i, 1152920405095219200
  %bf.clear7.i.i.i.i.i.i.i.i.i = and i64 %bf.load.i.i.i.i.i.i.i.i.i, -1152920405095219201
  %bf.set.i.i.i.i.i.i.i.i.i = or disjoint i64 %bf.shl.i.i.i.i.i.i.i.i.i, %bf.clear7.i.i.i.i.i.i.i.i.i
  store i64 %bf.set.i.i.i.i.i.i.i.i.i, ptr %4, align 8
  %cmp12.i.i.i.i.i.i.i.i.i = icmp eq i64 %bf.shl.i.i.i.i.i.i.i.i.i, 0
  br i1 %cmp12.i.i.i.i.i.i.i.i.i, label %if.then13.i.i.i.i.i.i.i.i.i, label %_ZSt8_DestroyISt4pairIN4cvc58internal12NodeTemplateILb1EEEjEEvPT_.exit.i.i.i.i.i

if.then13.i.i.i.i.i.i.i.i.i:                      ; preds = %if.then.i.i.i.i.i.i.i.i.i
  invoke void @_ZN4cvc58internal4expr9NodeValue15markForDeletionEv(ptr noundef nonnull align 8 dereferenceable(16) %4)
          to label %_ZSt8_DestroyISt4pairIN4cvc58internal12NodeTemplateILb1EEEjEEvPT_.exit.i.i.i.i.i unwind label %terminate.lpad.i.i.i.i.i.i.i.i

terminate.lpad.i.i.i.i.i.i.i.i:                   ; preds = %if.then13.i.i.i.i.i.i.i.i.i
  %6 = landingpad { ptr, i32 }
          catch ptr null
  %7 = extractvalue { ptr, i32 } %6, 0
  tail call void @__clang_call_terminate(ptr %7) #16
  unreachable

_ZSt8_DestroyISt4pairIN4cvc58internal12NodeTemplateILb1EEEjEEvPT_.exit.i.i.i.i.i: ; preds = %if.then13.i.i.i.i.i.i.i.i.i, %if.then.i.i.i.i.i.i.i.i.i, %for.body.i.i.i.i.i
  %incdec.ptr.i.i.i.i.i = getelementptr inbounds i8, ptr %__first.addr.04.i.i.i.i.i, i64 16
  %cmp.not.i.i.i.i.i = icmp eq ptr %incdec.ptr.i.i.i.i.i, %3
  br i1 %cmp.not.i.i.i.i.i, label %invoke.contthread-pre-split.i.i, label %for.body.i.i.i.i.i, !llvm.loop !4

invoke.contthread-pre-split.i.i:                  ; preds = %_ZSt8_DestroyISt4pairIN4cvc58internal12NodeTemplateILb1EEEjEEvPT_.exit.i.i.i.i.i
  %.pr.i.i = load ptr, ptr %d_sat_literals.i, align 8
  br label %invoke.cont.i.i

invoke.cont.i.i:                                  ; preds = %invoke.contthread-pre-split.i.i, %_ZNSt10unique_ptrIN4cvc58internal4prop24TheoryPreregistrarNotifyESt14default_deleteIS3_EED2Ev.exit.i
  %8 = phi ptr [ %.pr.i.i, %invoke.contthread-pre-split.i.i ], [ %2, %_ZNSt10unique_ptrIN4cvc58internal4prop24TheoryPreregistrarNotifyESt14default_deleteIS3_EED2Ev.exit.i ]
  %tobool.not.i.i.i.i = icmp eq ptr %8, null
  br i1 %tobool.not.i.i.i.i, label %_ZN4cvc58internal4prop18TheoryPreregistrarD2Ev.exit, label %if.then.i.i.i.i

if.then.i.i.i.i:                                  ; preds = %invoke.cont.i.i
  tail call void @_ZdlPv(ptr noundef nonnull %8) #14
  br label %_ZN4cvc58internal4prop18TheoryPreregistrarD2Ev.exit

_ZN4cvc58internal4prop18TheoryPreregistrarD2Ev.exit: ; preds = %invoke.cont.i.i, %if.then.i.i.i.i
  tail call void @_ZdlPv(ptr noundef nonnull %this) #14
  ret void
}